target datalayout = "e-m:e-p270:32:32-p271:32:32-p272:64:64-i64:64-i128:128-f80:128-n8:16:32:64-S128"
target triple = "x86_64-unknown-linux-gnu"

%"class.std::__cxx11::basic_string" = type { %"struct.std::__cxx11::basic_string<char>::_Alloc_hider", i64, %union.anon }
%"struct.std::__cxx11::basic_string<char>::_Alloc_hider" = type { ptr }
%union.anon = type { i64, [8 x i8] }
%"class.std::allocator" = type { i8 }

@.str.6 = private unnamed_addr constant [2 x i8] c"<\00", align 1
@.str.7 = private unnamed_addr constant [2 x i8] c" \00", align 1
@.str.8 = private unnamed_addr constant [3 x i8] c"=\22\00", align 1
@.str.9 = private unnamed_addr constant [2 x i8] c"\22\00", align 1
@.str.10 = private unnamed_addr constant [2 x i8] c">\00", align 1
@.str.11 = private unnamed_addr constant [3 x i8] c"</\00", align 1

; Function Attrs: mustprogress uwtable
define noundef nonnull align 8 dereferenceable(8) ptr @_ZN19OpenColorIO_v2_4devlsERSoRKNS_14FormatMetadataE(ptr noundef nonnull align 8 dereferenceable(8) %os, ptr noundef nonnull align 8 dereferenceable(8) %fd) #0 personality ptr @__gxx_personality_v0 {
entry:
  %os.addr = alloca ptr, align 8
  %fd.addr = alloca ptr, align 8
  %name = alloca %"class.std::__cxx11::basic_string", align 8
  %ref.tmp = alloca %"class.std::allocator", align 1
  %exn.slot = alloca ptr, align 8
  %ehselector.slot = alloca i32, align 4
  %numAtt = alloca i32, align 4
  %i = alloca i32, align 4
  %val = alloca %"class.std::__cxx11::basic_string", align 8
  %ref.tmp30 = alloca %"class.std::allocator", align 1
  %numElt = alloca i32, align 4
  %i42 = alloca i32, align 4
  store ptr %os, ptr %os.addr, align 8
  store ptr %fd, ptr %fd.addr, align 8
  %0 = load ptr, ptr %fd.addr, align 8
  %vtable = load ptr, ptr %0, align 8
  %vfn = getelementptr inbounds ptr, ptr %vtable, i64 0
  %1 = load ptr, ptr %vfn, align 8
  %call = call noundef ptr %1(ptr noundef nonnull align 8 dereferenceable(8) %0) #9
  call void @_ZNSaIcEC1Ev(ptr noundef nonnull align 1 dereferenceable(1) %ref.tmp) #9
  invoke void @_ZNSt7__cxx1112basic_stringIcSt11char_traitsIcESaIcEEC1EPKcRKS3_(ptr noundef nonnull align 8 dereferenceable(32) %name, ptr noundef %call, ptr noundef nonnull align 1 dereferenceable(1) %ref.tmp)
          to label %invoke.cont unwind label %lpad

invoke.cont:                                      ; preds = %entry
  call void @_ZNSaIcED1Ev(ptr noundef nonnull align 1 dereferenceable(1) %ref.tmp) #9
  %2 = load ptr, ptr %os.addr, align 8
  %call3 = invoke noundef nonnull align 8 dereferenceable(8) ptr @_ZStlsISt11char_traitsIcEERSt13basic_ostreamIcT_ES5_PKc(ptr noundef nonnull align 8 dereferenceable(8) %2, ptr noundef @.str.6)
          to label %invoke.cont2 unwind label %lpad1

invoke.cont2:                                     ; preds = %invoke.cont
  %call5 = invoke noundef nonnull align 8 dereferenceable(8) ptr @_ZStlsIcSt11char_traitsIcESaIcEERSt13basic_ostreamIT_T0_ES7_RKNSt7__cxx1112basic_stringIS4_S5_T1_EE(ptr noundef nonnull align 8 dereferenceable(8) %call3, ptr noundef nonnull align 8 dereferenceable(32) %name)
          to label %invoke.cont4 unwind label %lpad1

invoke.cont4:                                     ; preds = %invoke.cont2
  %3 = load ptr, ptr %fd.addr, align 8
  %vtable6 = load ptr, ptr %3, align 8
  %vfn7 = getelementptr inbounds ptr, ptr %vtable6, i64 4
  %4 = load ptr, ptr %vfn7, align 8
  %call8 = call noundef i32 %4(ptr noundef nonnull align 8 dereferenceable(8) %3) #9
  store i32 %call8, ptr %numAtt, align 4
  %5 = load i32, ptr %numAtt, align 4
  %tobool = icmp ne i32 %5, 0
  br i1 %tobool, label %if.then, label %if.end

if.then:                                          ; preds = %invoke.cont4
  store i32 0, ptr %i, align 4
  br label %for.cond

for.cond:                                         ; preds = %for.inc, %if.then
  %6 = load i32, ptr %i, align 4
  %7 = load i32, ptr %numAtt, align 4
  %cmp = icmp slt i32 %6, %7
  br i1 %cmp, label %for.body, label %for.end

for.body:                                         ; preds = %for.cond
  %8 = load ptr, ptr %os.addr, align 8
  %call10 = invoke noundef nonnull align 8 dereferenceable(8) ptr @_ZStlsISt11char_traitsIcEERSt13basic_ostreamIcT_ES5_PKc(ptr noundef nonnull align 8 dereferenceable(8) %8, ptr noundef @.str.7)
          to label %invoke.cont9 unwind label %lpad1

invoke.cont9:                                     ; preds = %for.body
  %9 = load ptr, ptr %fd.addr, align 8
  %10 = load i32, ptr %i, align 4
  %vtable11 = load ptr, ptr %9, align 8
  %vfn12 = getelementptr inbounds ptr, ptr %vtable11, i64 5
  %11 = load ptr, ptr %vfn12, align 8
  %call13 = call noundef ptr %11(ptr noundef nonnull align 8 dereferenceable(8) %9, i32 noundef %10) #9
  %call15 = invoke noundef nonnull align 8 dereferenceable(8) ptr @_ZStlsISt11char_traitsIcEERSt13basic_ostreamIcT_ES5_PKc(ptr noundef nonnull align 8 dereferenceable(8) %call10, ptr noundef %call13)
          to label %invoke.cont14 unwind label %lpad1

invoke.cont14:                                    ; preds = %invoke.cont9
  %call17 = invoke noundef nonnull align 8 dereferenceable(8) ptr @_ZStlsISt11char_traitsIcEERSt13basic_ostreamIcT_ES5_PKc(ptr noundef nonnull align 8 dereferenceable(8) %call15, ptr noundef @.str.8)
          to label %invoke.cont16 unwind label %lpad1

invoke.cont16:                                    ; preds = %invoke.cont14
  %12 = load ptr, ptr %fd.addr, align 8
  %13 = load i32, ptr %i, align 4
  %vtable18 = load ptr, ptr %12, align 8
  %vfn19 = getelementptr inbounds ptr, ptr %vtable18, i64 6
  %14 = load ptr, ptr %vfn19, align 8
  %call20 = call noundef ptr %14(ptr noundef nonnull align 8 dereferenceable(8) %12, i32 noundef %13) #9
  %call22 = invoke noundef nonnull align 8 dereferenceable(8) ptr @_ZStlsISt11char_traitsIcEERSt13basic_ostreamIcT_ES5_PKc(ptr noundef nonnull align 8 dereferenceable(8) %call17, ptr noundef %call20)
          to label %invoke.cont21 unwind label %lpad1

invoke.cont21:                                    ; preds = %invoke.cont16
  %call24 = invoke noundef nonnull align 8 dereferenceable(8) ptr @_ZStlsISt11char_traitsIcEERSt13basic_ostreamIcT_ES5_PKc(ptr noundef nonnull align 8 dereferenceable(8) %call22, ptr noundef @.str.9)
          to label %invoke.cont23 unwind label %lpad1

invoke.cont23:                                    ; preds = %invoke.cont21
  br label %for.inc

for.inc:                                          ; preds = %invoke.cont23
  %15 = load i32, ptr %i, align 4
  %inc = add nsw i32 %15, 1
  store i32 %inc, ptr %i, align 4
  br label %for.cond, !llvm.loop !4

lpad:                                             ; preds = %entry
  %16 = landingpad { ptr, i32 }
          cleanup
  %17 = extractvalue { ptr, i32 } %16, 0
  store ptr %17, ptr %exn.slot, align 8
  %18 = extractvalue { ptr, i32 } %16, 1
  store i32 %18, ptr %ehselector.slot, align 4
  call void @_ZNSaIcED1Ev(ptr noundef nonnull align 1 dereferenceable(1) %ref.tmp) #9
  br label %eh.resume

lpad1:                                            ; preds = %if.end, %invoke.cont21, %invoke.cont16, %invoke.cont14, %invoke.cont9, %for.body, %invoke.cont2, %invoke.cont
  %19 = landingpad { ptr, i32 }
          cleanup
  %20 = extractvalue { ptr, i32 } %19, 0
  store ptr %20, ptr %exn.slot, align 8
  %21 = extractvalue { ptr, i32 } %19, 1
  store i32 %21, ptr %ehselector.slot, align 4
  br label %ehcleanup

for.end:                                          ; preds = %for.cond
  br label %if.end

if.end:                                           ; preds = %for.end, %invoke.cont4
  %22 = load ptr, ptr %os.addr, align 8
  %call26 = invoke noundef nonnull align 8 dereferenceable(8) ptr @_ZStlsISt11char_traitsIcEERSt13basic_ostreamIcT_ES5_PKc(ptr noundef nonnull align 8 dereferenceable(8) %22, ptr noundef @.str.10)
          to label %invoke.cont25 unwind label %lpad1

invoke.cont25:                                    ; preds = %if.end
  %23 = load ptr, ptr %fd.addr, align 8
  %vtable27 = load ptr, ptr %23, align 8
  %vfn28 = getelementptr inbounds ptr, ptr %vtable27, i64 2
  %24 = load ptr, ptr %vfn28, align 8
  %call29 = call noundef ptr %24(ptr noundef nonnull align 8 dereferenceable(8) %23) #9
  call void @_ZNSaIcEC1Ev(ptr noundef nonnull align 1 dereferenceable(1) %ref.tmp30) #9
  invoke void @_ZNSt7__cxx1112basic_stringIcSt11char_traitsIcESaIcEEC1EPKcRKS3_(ptr noundef nonnull align 8 dereferenceable(32) %val, ptr noundef %call29, ptr noundef nonnull align 1 dereferenceable(1) %ref.tmp30)
          to label %invoke.cont32 unwind label %lpad31

invoke.cont32:                                    ; preds = %invoke.cont25
  call void @_ZNSaIcED1Ev(ptr noundef nonnull align 1 dereferenceable(1) %ref.tmp30) #9
  %call33 = call noundef zeroext i1 @_ZNKSt7__cxx1112basic_stringIcSt11char_traitsIcESaIcEE5emptyEv(ptr noundef nonnull align 8 dereferenceable(32) %val) #9
  br i1 %call33, label %if.end38, label %if.then34

if.then34:                                        ; preds = %invoke.cont32
  %25 = load ptr, ptr %os.addr, align 8
  %call37 = invoke noundef nonnull align 8 dereferenceable(8) ptr @_ZStlsIcSt11char_traitsIcESaIcEERSt13basic_ostreamIT_T0_ES7_RKNSt7__cxx1112basic_stringIS4_S5_T1_EE(ptr noundef nonnull align 8 dereferenceable(8) %25, ptr noundef nonnull align 8 dereferenceable(32) %val)
          to label %invoke.cont36 unwind label %lpad35

invoke.cont36:                                    ; preds = %if.then34
  br label %if.end38

lpad31:                                           ; preds = %invoke.cont25
  %26 = landingpad { ptr, i32 }
          cleanup
  %27 = extractvalue { ptr, i32 } %26, 0
  store ptr %27, ptr %exn.slot, align 8
  %28 = extractvalue { ptr, i32 } %26, 1
  store i32 %28, ptr %ehselector.slot, align 4
  call void @_ZNSaIcED1Ev(ptr noundef nonnull align 1 dereferenceable(1) %ref.tmp30) #9
  br label %ehcleanup

lpad35:                                           ; preds = %invoke.cont57, %invoke.cont55, %for.end54, %invoke.cont48, %for.body45, %if.then34
  %29 = landingpad { ptr, i32 }
          cleanup
  %30 = extractvalue { ptr, i32 } %29, 0
  store ptr %30, ptr %exn.slot, align 8
  %31 = extractvalue { ptr, i32 } %29, 1
  store i32 %31, ptr %ehselector.slot, align 4
  call void @_ZNSt7__cxx1112basic_stringIcSt11char_traitsIcESaIcEED1Ev(ptr noundef nonnull align 8 dereferenceable(32) %val) #9
  br label %ehcleanup

if.end38:                                         ; preds = %invoke.cont36, %invoke.cont32
  %32 = load ptr, ptr %fd.addr, align 8
  %vtable39 = load ptr, ptr %32, align 8
  %vfn40 = getelementptr inbounds ptr, ptr %vtable39, i64 9
  %33 = load ptr, ptr %vfn40, align 8
  %call41 = call noundef i32 %33(ptr noundef nonnull align 8 dereferenceable(8) %32) #9
  store i32 %call41, ptr %numElt, align 4
  store i32 0, ptr %i42, align 4
  br label %for.cond43

for.cond43:                                       ; preds = %for.inc52, %if.end38
  %34 = load i32, ptr %i42, align 4
  %35 = load i32, ptr %numElt, align 4
  %cmp44 = icmp slt i32 %34, %35
  br i1 %cmp44, label %for.body45, label %for.end54

for.body45:                                       ; preds = %for.cond43
  %36 = load ptr, ptr %os.addr, align 8
  %37 = load ptr, ptr %fd.addr, align 8
  %38 = load i32, ptr %i42, align 4
  %vtable46 = load ptr, ptr %37, align 8
  %vfn47 = getelementptr inbounds ptr, ptr %vtable46, i64 10
  %39 = load ptr, ptr %vfn47, align 8
  %call49 = invoke noundef nonnull align 8 dereferenceable(8) ptr %39(ptr noundef nonnull align 8 dereferenceable(8) %37, i32 noundef %38)
          to label %invoke.cont48 unwind label %lpad35

invoke.cont48:                                    ; preds = %for.body45
  %call51 = invoke noundef nonnull align 8 dereferenceable(8) ptr @_ZN19OpenColorIO_v2_4devlsERSoRKNS_14FormatMetadataE(ptr noundef nonnull align 8 dereferenceable(8) %36, ptr noundef nonnull align 8 dereferenceable(8) %call49)
          to label %invoke.cont50 unwind label %lpad35

invoke.cont50:                                    ; preds = %invoke.cont48
  br label %for.inc52

for.inc52:                                        ; preds = %invoke.cont50
  %40 = load i32, ptr %i42, align 4
  %inc53 = add nsw i32 %40, 1
  store i32 %inc53, ptr %i42, align 4
  br label %for.cond43, !llvm.loop !6

for.end54:                                        ; preds = %for.cond43
  %41 = load ptr, ptr %os.addr, align 8
  %call56 = invoke noundef nonnull align 8 dereferenceable(8) ptr @_ZStlsISt11char_traitsIcEERSt13basic_ostreamIcT_ES5_PKc(ptr noundef nonnull align 8 dereferenceable(8) %41, ptr noundef @.str.11)
          to label %invoke.cont55 unwind label %lpad35

invoke.cont55:                                    ; preds = %for.end54
  %call58 = invoke noundef nonnull align 8 dereferenceable(8) ptr @_ZStlsIcSt11char_traitsIcESaIcEERSt13basic_ostreamIT_T0_ES7_RKNSt7__cxx1112basic_stringIS4_S5_T1_EE(ptr noundef nonnull align 8 dereferenceable(8) %call56, ptr noundef nonnull align 8 dereferenceable(32) %name)
          to label %invoke.cont57 unwind label %lpad35

invoke.cont57:                                    ; preds = %invoke.cont55
  %call60 = invoke noundef nonnull align 8 dereferenceable(8) ptr @_ZStlsISt11char_traitsIcEERSt13basic_ostreamIcT_ES5_PKc(ptr noundef nonnull align 8 dereferenceable(8) %call58, ptr noundef @.str.10)
          to label %invoke.cont59 unwind label %lpad35

invoke.cont59:                                    ; preds = %invoke.cont57
  %42 = load ptr, ptr %os.addr, align 8
  call void @_ZNSt7__cxx1112basic_stringIcSt11char_traitsIcESaIcEED1Ev(ptr noundef nonnull align 8 dereferenceable(32) %val) #9
  call void @_ZNSt7__cxx1112basic_stringIcSt11char_traitsIcESaIcEED1Ev(ptr noundef nonnull align 8 dereferenceable(32) %name) #9
  ret ptr %42

ehcleanup:                                        ; preds = %lpad35, %lpad31, %lpad1
  call void @_ZNSt7__cxx1112basic_stringIcSt11char_traitsIcESaIcEED1Ev(ptr noundef nonnull align 8 dereferenceable(32) %name) #9
  br label %eh.resume

eh.resume:                                        ; preds = %ehcleanup, %lpad
  %exn = load ptr, ptr %exn.slot, align 8
  %sel = load i32, ptr %ehselector.slot, align 4
  %lpad.val = insertvalue { ptr, i32 } poison, ptr %exn, 0
  %lpad.val61 = insertvalue { ptr, i32 } %lpad.val, i32 %sel, 1
  resume { ptr, i32 } %lpad.val61
}