; Function Attrs: mustprogress uwtable
define noundef nonnull align 8 dereferenceable(8) ptr @_ZN19OpenColorIO_v2_4devlsERSoRKNS_14FormatMetadataE(ptr noundef nonnull returned align 8 dereferenceable(8) %os, ptr noundef nonnull align 8 dereferenceable(8) %fd) local_unnamed_addr #0 personality ptr @__gxx_personality_v0 {
entry:
  %name = alloca %"class.std::__cxx11::basic_string", align 8
  %ref.tmp = alloca %"class.std::allocator", align 1
  %val = alloca %"class.std::__cxx11::basic_string", align 8
  %ref.tmp30 = alloca %"class.std::allocator", align 1
  %vtable = load ptr, ptr %fd, align 8
  %0 = load ptr, ptr %vtable, align 8
  %call = tail call noundef ptr %0(ptr noundef nonnull align 8 dereferenceable(8) %fd) #17
  call void @_ZNSaIcEC1Ev(ptr noundef nonnull align 1 dereferenceable(1) %ref.tmp) #17
  invoke void @_ZNSt7__cxx1112basic_stringIcSt11char_traitsIcESaIcEEC1EPKcRKS3_(ptr noundef nonnull align 8 dereferenceable(32) %name, ptr noundef %call, ptr noundef nonnull align 1 dereferenceable(1) %ref.tmp)
          to label %invoke.cont unwind label %lpad

invoke.cont:                                      ; preds = %entry
  call void @_ZNSaIcED1Ev(ptr noundef nonnull align 1 dereferenceable(1) %ref.tmp) #17
  %call3 = invoke noundef nonnull align 8 dereferenceable(8) ptr @_ZStlsISt11char_traitsIcEERSt13basic_ostreamIcT_ES5_PKc(ptr noundef nonnull align 8 dereferenceable(8) %os, ptr noundef nonnull @.str.6)
          to label %invoke.cont2 unwind label %lpad1.loopexit.split-lp

invoke.cont2:                                     ; preds = %invoke.cont
  %call5 = invoke noundef nonnull align 8 dereferenceable(8) ptr @_ZStlsIcSt11char_traitsIcESaIcEERSt13basic_ostreamIT_T0_ES7_RKNSt7__cxx1112basic_stringIS4_S5_T1_EE(ptr noundef nonnull align 8 dereferenceable(8) %call3, ptr noundef nonnull align 8 dereferenceable(32) %name)
          to label %invoke.cont4 unwind label %lpad1.loopexit.split-lp

invoke.cont4:                                     ; preds = %invoke.cont2
  %vtable6 = load ptr, ptr %fd, align 8
  %vfn7 = getelementptr inbounds i8, ptr %vtable6, i64 32
  %1 = load ptr, ptr %vfn7, align 8
  %call8 = call noundef i32 %1(ptr noundef nonnull align 8 dereferenceable(8) %fd) #17
  %cmp24 = icmp sgt i32 %call8, 0
  br i1 %cmp24, label %for.body, label %if.end

for.body:                                         ; preds = %invoke.cont4, %for.inc
  %i.025 = phi i32 [ %inc, %for.inc ], [ 0, %invoke.cont4 ]
  %call10 = invoke noundef nonnull align 8 dereferenceable(8) ptr @_ZStlsISt11char_traitsIcEERSt13basic_ostreamIcT_ES5_PKc(ptr noundef nonnull align 8 dereferenceable(8) %os, ptr noundef nonnull @.str.7)
          to label %invoke.cont9 unwind label %lpad1.loopexit

invoke.cont9:                                     ; preds = %for.body
  %vtable11 = load ptr, ptr %fd, align 8
  %vfn12 = getelementptr inbounds i8, ptr %vtable11, i64 40
  %2 = load ptr, ptr %vfn12, align 8
  %call13 = call noundef ptr %2(ptr noundef nonnull align 8 dereferenceable(8) %fd, i32 noundef %i.025) #17
  %call15 = invoke noundef nonnull align 8 dereferenceable(8) ptr @_ZStlsISt11char_traitsIcEERSt13basic_ostreamIcT_ES5_PKc(ptr noundef nonnull align 8 dereferenceable(8) %call10, ptr noundef %call13)
          to label %invoke.cont14 unwind label %lpad1.loopexit

invoke.cont14:                                    ; preds = %invoke.cont9
  %call17 = invoke noundef nonnull align 8 dereferenceable(8) ptr @_ZStlsISt11char_traitsIcEERSt13basic_ostreamIcT_ES5_PKc(ptr noundef nonnull align 8 dereferenceable(8) %call15, ptr noundef nonnull @.str.8)
          to label %invoke.cont16 unwind label %lpad1.loopexit

invoke.cont16:                                    ; preds = %invoke.cont14
  %vtable18 = load ptr, ptr %fd, align 8
  %vfn19 = getelementptr inbounds i8, ptr %vtable18, i64 48
  %3 = load ptr, ptr %vfn19, align 8
  %call20 = call noundef ptr %3(ptr noundef nonnull align 8 dereferenceable(8) %fd, i32 noundef %i.025) #17
  %call22 = invoke noundef nonnull align 8 dereferenceable(8) ptr @_ZStlsISt11char_traitsIcEERSt13basic_ostreamIcT_ES5_PKc(ptr noundef nonnull align 8 dereferenceable(8) %call17, ptr noundef %call20)
          to label %invoke.cont21 unwind label %lpad1.loopexit

invoke.cont21:                                    ; preds = %invoke.cont16
  %call24 = invoke noundef nonnull align 8 dereferenceable(8) ptr @_ZStlsISt11char_traitsIcEERSt13basic_ostreamIcT_ES5_PKc(ptr noundef nonnull align 8 dereferenceable(8) %call22, ptr noundef nonnull @.str.9)
          to label %for.inc unwind label %lpad1.loopexit

for.inc:                                          ; preds = %invoke.cont21
  %inc = add nuw nsw i32 %i.025, 1
  %exitcond.not = icmp eq i32 %inc, %call8
  br i1 %exitcond.not, label %if.end, label %for.body, !llvm.loop !4

lpad:                                             ; preds = %entry
  %4 = landingpad { ptr, i32 }
          cleanup
  call void @_ZNSaIcED1Ev(ptr noundef nonnull align 1 dereferenceable(1) %ref.tmp) #17
  br label %eh.resume

lpad1.loopexit:                                   ; preds = %for.body, %invoke.cont9, %invoke.cont14, %invoke.cont16, %invoke.cont21
  %lpad.loopexit21 = landingpad { ptr, i32 }
          cleanup
  br label %ehcleanup

lpad1.loopexit.split-lp:                          ; preds = %invoke.cont, %invoke.cont2, %if.end
  %lpad.loopexit.split-lp22 = landingpad { ptr, i32 }
          cleanup
  br label %ehcleanup

if.end:                                           ; preds = %for.inc, %invoke.cont4
  %call26 = invoke noundef nonnull align 8 dereferenceable(8) ptr @_ZStlsISt11char_traitsIcEERSt13basic_ostreamIcT_ES5_PKc(ptr noundef nonnull align 8 dereferenceable(8) %os, ptr noundef nonnull @.str.10)
          to label %invoke.cont25 unwind label %lpad1.loopexit.split-lp

invoke.cont25:                                    ; preds = %if.end
  %vtable27 = load ptr, ptr %fd, align 8
  %vfn28 = getelementptr inbounds i8, ptr %vtable27, i64 16
  %5 = load ptr, ptr %vfn28, align 8
  %call29 = call noundef ptr %5(ptr noundef nonnull align 8 dereferenceable(8) %fd) #17
  call void @_ZNSaIcEC1Ev(ptr noundef nonnull align 1 dereferenceable(1) %ref.tmp30) #17
  invoke void @_ZNSt7__cxx1112basic_stringIcSt11char_traitsIcESaIcEEC1EPKcRKS3_(ptr noundef nonnull align 8 dereferenceable(32) %val, ptr noundef %call29, ptr noundef nonnull align 1 dereferenceable(1) %ref.tmp30)
          to label %invoke.cont32 unwind label %lpad31

invoke.cont32:                                    ; preds = %invoke.cont25
  call void @_ZNSaIcED1Ev(ptr noundef nonnull align 1 dereferenceable(1) %ref.tmp30) #17
  %call33 = call noundef zeroext i1 @_ZNKSt7__cxx1112basic_stringIcSt11char_traitsIcESaIcEE5emptyEv(ptr noundef nonnull align 8 dereferenceable(32) %val) #17
  br i1 %call33, label %if.end38, label %if.then34

if.then34:                                        ; preds = %invoke.cont32
  %call37 = invoke noundef nonnull align 8 dereferenceable(8) ptr @_ZStlsIcSt11char_traitsIcESaIcEERSt13basic_ostreamIT_T0_ES7_RKNSt7__cxx1112basic_stringIS4_S5_T1_EE(ptr noundef nonnull align 8 dereferenceable(8) %os, ptr noundef nonnull align 8 dereferenceable(32) %val)
          to label %if.end38 unwind label %lpad35.loopexit.split-lp

lpad31:                                           ; preds = %invoke.cont25
  %6 = landingpad { ptr, i32 }
          cleanup
  call void @_ZNSaIcED1Ev(ptr noundef nonnull align 1 dereferenceable(1) %ref.tmp30) #17
  br label %ehcleanup

lpad35.loopexit:                                  ; preds = %for.body45, %invoke.cont48
  %lpad.loopexit = landingpad { ptr, i32 }
          cleanup
  br label %lpad35

lpad35.loopexit.split-lp:                         ; preds = %if.then34, %for.end54, %invoke.cont55, %invoke.cont57
  %lpad.loopexit.split-lp = landingpad { ptr, i32 }
          cleanup
  br label %lpad35

lpad35:                                           ; preds = %lpad35.loopexit.split-lp, %lpad35.loopexit
  %lpad.phi = phi { ptr, i32 } [ %lpad.loopexit, %lpad35.loopexit ], [ %lpad.loopexit.split-lp, %lpad35.loopexit.split-lp ]
  call void @_ZNSt7__cxx1112basic_stringIcSt11char_traitsIcESaIcEED1Ev(ptr noundef nonnull align 8 dereferenceable(32) %val) #17
  br label %ehcleanup

if.end38:                                         ; preds = %if.then34, %invoke.cont32
  %vtable39 = load ptr, ptr %fd, align 8
  %vfn40 = getelementptr inbounds i8, ptr %vtable39, i64 72
  %7 = load ptr, ptr %vfn40, align 8
  %call41 = call noundef i32 %7(ptr noundef nonnull align 8 dereferenceable(8) %fd) #17
  %cmp4426 = icmp sgt i32 %call41, 0
  br i1 %cmp4426, label %for.body45, label %for.end54

for.body45:                                       ; preds = %if.end38, %for.inc52
  %i42.027 = phi i32 [ %inc53, %for.inc52 ], [ 0, %if.end38 ]
  %vtable46 = load ptr, ptr %fd, align 8
  %vfn47 = getelementptr inbounds i8, ptr %vtable46, i64 80
  %8 = load ptr, ptr %vfn47, align 8
  %call49 = invoke noundef nonnull align 8 dereferenceable(8) ptr %8(ptr noundef nonnull align 8 dereferenceable(8) %fd, i32 noundef %i42.027)
          to label %invoke.cont48 unwind label %lpad35.loopexit

invoke.cont48:                                    ; preds = %for.body45
  %call51 = invoke noundef nonnull align 8 dereferenceable(8) ptr @_ZN19OpenColorIO_v2_4devlsERSoRKNS_14FormatMetadataE(ptr noundef nonnull align 8 dereferenceable(8) %os, ptr noundef nonnull align 8 dereferenceable(8) %call49)
          to label %for.inc52 unwind label %lpad35.loopexit

for.inc52:                                        ; preds = %invoke.cont48
  %inc53 = add nuw nsw i32 %i42.027, 1
  %exitcond28.not = icmp eq i32 %inc53, %call41
  br i1 %exitcond28.not, label %for.end54, label %for.body45, !llvm.loop !6

for.end54:                                        ; preds = %for.inc52, %if.end38
  %call56 = invoke noundef nonnull align 8 dereferenceable(8) ptr @_ZStlsISt11char_traitsIcEERSt13basic_ostreamIcT_ES5_PKc(ptr noundef nonnull align 8 dereferenceable(8) %os, ptr noundef nonnull @.str.11)
          to label %invoke.cont55 unwind label %lpad35.loopexit.split-lp

invoke.cont55:                                    ; preds = %for.end54
  %call58 = invoke noundef nonnull align 8 dereferenceable(8) ptr @_ZStlsIcSt11char_traitsIcESaIcEERSt13basic_ostreamIT_T0_ES7_RKNSt7__cxx1112basic_stringIS4_S5_T1_EE(ptr noundef nonnull align 8 dereferenceable(8) %call56, ptr noundef nonnull align 8 dereferenceable(32) %name)
          to label %invoke.cont57 unwind label %lpad35.loopexit.split-lp

invoke.cont57:                                    ; preds = %invoke.cont55
  %call60 = invoke noundef nonnull align 8 dereferenceable(8) ptr @_ZStlsISt11char_traitsIcEERSt13basic_ostreamIcT_ES5_PKc(ptr noundef nonnull align 8 dereferenceable(8) %call58, ptr noundef nonnull @.str.10)
          to label %invoke.cont59 unwind label %lpad35.loopexit.split-lp

invoke.cont59:                                    ; preds = %invoke.cont57
  call void @_ZNSt7__cxx1112basic_stringIcSt11char_traitsIcESaIcEED1Ev(ptr noundef nonnull align 8 dereferenceable(32) %val) #17
  call void @_ZNSt7__cxx1112basic_stringIcSt11char_traitsIcESaIcEED1Ev(ptr noundef nonnull align 8 dereferenceable(32) %name) #17
  ret ptr %os

ehcleanup:                                        ; preds = %lpad1.loopexit, %lpad1.loopexit.split-lp, %lpad35, %lpad31
  %.pn = phi { ptr, i32 } [ %lpad.phi, %lpad35 ], [ %6, %lpad31 ], [ %lpad.loopexit21, %lpad1.loopexit ], [ %lpad.loopexit.split-lp22, %lpad1.loopexit.split-lp ]
  call void @_ZNSt7__cxx1112basic_stringIcSt11char_traitsIcESaIcEED1Ev(ptr noundef nonnull align 8 dereferenceable(32) %name) #17
  br label %eh.resume

eh.resume:                                        ; preds = %ehcleanup, %lpad
  %.pn.pn = phi { ptr, i32 } [ %.pn, %ehcleanup ], [ %4, %lpad ]
  resume { ptr, i32 } %.pn.pn
}